target datalayout = "e-m:e-p270:32:32-p271:32:32-p272:64:64-i64:64-i128:128-f80:128-n8:16:32:64-S128"
target triple = "x86_64-pc-linux-gnu"

@select_name = internal global ptr null, align 8
@.str.108 = private unnamed_addr constant [6 x i8] c"  %s\0A\00", align 1
@.str.109 = private unnamed_addr constant [12 x i8] c"<undefined>\00", align 1
@.str.110 = private unnamed_addr constant [12 x i8] c"  %s => %s\0A\00", align 1

; Function Attrs: nounwind uwtable
define internal void @legacy_cipher_fn(ptr noundef %0, ptr noundef %1, ptr noundef %2, ptr noundef %3) #0 {
  %5 = alloca ptr, align 8
  %6 = alloca ptr, align 8
  %7 = alloca ptr, align 8
  %8 = alloca ptr, align 8
  store ptr %0, ptr %5, align 8, !tbaa !44
  store ptr %1, ptr %6, align 8, !tbaa !11
  store ptr %2, ptr %7, align 8, !tbaa !11
  store ptr %3, ptr %8, align 8, !tbaa !123
  %9 = load ptr, ptr @select_name, align 8, !tbaa !11
  %10 = icmp ne ptr %9, null
  br i1 %10, label %11, label %21

11:                                               ; preds = %4
  %12 = load ptr, ptr %5, align 8, !tbaa !44
  %13 = icmp eq ptr %12, null
  br i1 %13, label %20, label %14

14:                                               ; preds = %11
  %15 = load ptr, ptr @select_name, align 8, !tbaa !11
  %16 = load ptr, ptr %5, align 8, !tbaa !44
  %17 = call ptr @EVP_CIPHER_get0_name(ptr noundef %16)
  %18 = call i32 @OPENSSL_strcasecmp(ptr noundef %15, ptr noundef %17)
  %19 = icmp ne i32 %18, 0
  br i1 %19, label %20, label %21

20:                                               ; preds = %14, %11
  br label %42

21:                                               ; preds = %14, %4
  %22 = load ptr, ptr %5, align 8, !tbaa !44
  %23 = icmp ne ptr %22, null
  br i1 %23, label %24, label %29

24:                                               ; preds = %21
  %25 = load ptr, ptr %8, align 8, !tbaa !123
  %26 = load ptr, ptr %5, align 8, !tbaa !44
  %27 = call ptr @EVP_CIPHER_get0_name(ptr noundef %26)
  %28 = call i32 (ptr, ptr, ...) @BIO_printf(ptr noundef %25, ptr noundef @.str.108, ptr noundef %27)
  br label %42

29:                                               ; preds = %21
  %30 = load ptr, ptr %6, align 8, !tbaa !11
  %31 = icmp eq ptr %30, null
  br i1 %31, label %32, label %33

32:                                               ; preds = %29
  store ptr @.str.109, ptr %6, align 8, !tbaa !11
  br label %33

33:                                               ; preds = %32, %29
  %34 = load ptr, ptr %7, align 8, !tbaa !11
  %35 = icmp eq ptr %34, null
  br i1 %35, label %36, label %37

36:                                               ; preds = %33
  store ptr @.str.109, ptr %7, align 8, !tbaa !11
  br label %37

37:                                               ; preds = %36, %33
  %38 = load ptr, ptr %8, align 8, !tbaa !123
  %39 = load ptr, ptr %6, align 8, !tbaa !11
  %40 = load ptr, ptr %7, align 8, !tbaa !11
  %41 = call i32 (ptr, ptr, ...) @BIO_printf(ptr noundef %38, ptr noundef @.str.110, ptr noundef %39, ptr noundef %40)
  br label %42

42:                                               ; preds = %20, %37, %24
  ret void
}