; Function Attrs: nounwind uwtable
define internal void @legacy_cipher_fn(ptr noundef %0, ptr noundef %1, ptr noundef %2, ptr noundef %3) #0 {
  %5 = load ptr, ptr @select_name, align 8, !tbaa !23
  %.not = icmp eq ptr %5, null
  %.not13 = icmp eq ptr %0, null
  br i1 %.not, label %10, label %6

6:                                                ; preds = %4
  br i1 %.not13, label %17, label %7

7:                                                ; preds = %6
  %8 = tail call ptr @EVP_CIPHER_get0_name(ptr noundef nonnull %0) #6
  %9 = tail call i32 @OPENSSL_strcasecmp(ptr noundef nonnull %5, ptr noundef %8) #6
  %.not12 = icmp eq i32 %9, 0
  br i1 %.not12, label %.thread, label %17

10:                                               ; preds = %4
  br i1 %.not13, label %13, label %.thread

.thread:                                          ; preds = %7, %10
  %11 = tail call ptr @EVP_CIPHER_get0_name(ptr noundef nonnull %0) #6
  %12 = tail call i32 (ptr, ptr, ...) @BIO_printf(ptr noundef %3, ptr noundef nonnull @.str.108, ptr noundef %11) #6
  br label %17

13:                                               ; preds = %10
  %14 = icmp eq ptr %1, null
  %spec.store.select = select i1 %14, ptr @.str.109, ptr %1
  %15 = icmp eq ptr %2, null
  %spec.store.select1 = select i1 %15, ptr @.str.109, ptr %2
  %16 = tail call i32 (ptr, ptr, ...) @BIO_printf(ptr noundef %3, ptr noundef nonnull @.str.110, ptr noundef nonnull %spec.store.select, ptr noundef nonnull %spec.store.select1) #6
  br label %17

17:                                               ; preds = %6, %7, %13, %.thread
  ret void
}